; Function Attrs: nounwind uwtable
define void @PMIx_App_release(ptr noundef captures(address_is_null) %0) local_unnamed_addr #6 {
  %.not.i.i = icmp eq ptr %0, null
  br i1 %.not.i.i, label %pmix_bfrops_base_tma_app_release.exit, label %.lr.ph.i.preheader.i

.lr.ph.i.preheader.i:                             ; preds = %1
  tail call fastcc void @pmix_bfrops_base_tma_app_destruct(ptr noundef nonnull %0)
  tail call void @free(ptr noundef nonnull %0) #44
  br label %pmix_bfrops_base_tma_app_release.exit

pmix_bfrops_base_tma_app_release.exit:            ; preds = %1, %.lr.ph.i.preheader.i
  ret void
}